target datalayout = "e-m:e-p270:32:32-p271:32:32-p272:64:64-i64:64-i128:128-f80:128-n8:16:32:64-S128"
target triple = "x86_64-pc-linux-gnu"

@g_memory_thread_alloc_size = hidden thread_local global i64 0, align 8
@g_memory_thread_alloc_count = hidden thread_local global i64 0, align 8

; Function Attrs: mustprogress uwtable
define hidden noalias noundef ptr @_ZN6memory8allocateEm(i64 noundef %0) #4 align 2 {
  %2 = alloca ptr, align 8
  %3 = alloca i64, align 8
  %4 = alloca ptr, align 8
  %5 = alloca i32, align 4
  store i64 %0, ptr %3, align 8, !tbaa !18
  %6 = load i64, ptr %3, align 8, !tbaa !18
  %7 = call align 8 ptr @llvm.threadlocal.address.p0(ptr align 8 @g_memory_thread_alloc_size)
  %8 = load i64, ptr %7, align 8, !tbaa !20
  %9 = add i64 %8, %6
  store i64 %9, ptr %7, align 8, !tbaa !20
  %10 = call align 8 ptr @llvm.threadlocal.address.p0(ptr align 8 @g_memory_thread_alloc_count)
  %11 = load i64, ptr %10, align 8, !tbaa !20
  %12 = add nsw i64 %11, 1
  store i64 %12, ptr %10, align 8, !tbaa !20
  %13 = call align 8 ptr @llvm.threadlocal.address.p0(ptr align 8 @g_memory_thread_alloc_size)
  %14 = load i64, ptr %13, align 8, !tbaa !20
  %15 = icmp sgt i64 %14, 100000
  br i1 %15, label %16, label %17

16:                                               ; preds = %1
  call void @_ZL20synchronize_countersb(i1 noundef zeroext true)
  br label %17

17:                                               ; preds = %16, %1
  call void @llvm.lifetime.start.p0(i64 8, ptr %4) #3
  %18 = load i64, ptr %3, align 8, !tbaa !18
  %19 = call noalias ptr @malloc(i64 noundef %18) #22
  store ptr %19, ptr %4, align 8, !tbaa !32
  %20 = load ptr, ptr %4, align 8, !tbaa !32
  %21 = icmp eq ptr %20, null
  br i1 %21, label %22, label %23

22:                                               ; preds = %17
  call void @_ZL19throw_out_of_memoryv()
  store ptr null, ptr %2, align 8
  store i32 1, ptr %5, align 4
  br label %32

23:                                               ; preds = %17
  %24 = load ptr, ptr %4, align 8, !tbaa !32
  %25 = call i64 @malloc_usable_size(ptr noundef %24) #3
  %26 = load i64, ptr %3, align 8, !tbaa !18
  %27 = sub i64 %25, %26
  %28 = call align 8 ptr @llvm.threadlocal.address.p0(ptr align 8 @g_memory_thread_alloc_size)
  %29 = load i64, ptr %28, align 8, !tbaa !20
  %30 = add i64 %29, %27
  store i64 %30, ptr %28, align 8, !tbaa !20
  %31 = load ptr, ptr %4, align 8, !tbaa !32
  store ptr %31, ptr %2, align 8
  store i32 1, ptr %5, align 4
  br label %32

32:                                               ; preds = %23, %22
  call void @llvm.lifetime.end.p0(i64 8, ptr %4) #3
  %33 = load ptr, ptr %2, align 8
  ret ptr %33
}