; Function Attrs: mustprogress uwtable
define hidden noalias noundef ptr @_ZN6memory8allocateEm(i64 noundef %0) local_unnamed_addr #3 align 2 {
  %2 = tail call align 8 ptr @llvm.threadlocal.address.p0(ptr align 8 @g_memory_thread_alloc_size)
  %3 = load i64, ptr %2, align 8, !tbaa !12
  %4 = add i64 %3, %0
  store i64 %4, ptr %2, align 8, !tbaa !12
  %5 = tail call align 8 ptr @llvm.threadlocal.address.p0(ptr align 8 @g_memory_thread_alloc_count)
  %6 = load i64, ptr %5, align 8, !tbaa !12
  %7 = add nsw i64 %6, 1
  store i64 %7, ptr %5, align 8, !tbaa !12
  %8 = icmp sgt i64 %4, 100000
  br i1 %8, label %9, label %10

9:                                                ; preds = %1
  tail call fastcc void @_ZL20synchronize_countersb(i1 noundef zeroext true)
  br label %10

10:                                               ; preds = %9, %1
  %11 = tail call noalias ptr @malloc(i64 noundef %0) #27
  %12 = icmp eq ptr %11, null
  br i1 %12, label %13, label %14

13:                                               ; preds = %10
  tail call fastcc void @_ZL19throw_out_of_memoryv()
  unreachable

14:                                               ; preds = %10
  %15 = tail call i64 @malloc_usable_size(ptr noundef nonnull %11) #25
  %16 = sub i64 %15, %0
  %17 = load i64, ptr %2, align 8, !tbaa !12
  %18 = add i64 %16, %17
  store i64 %18, ptr %2, align 8, !tbaa !12
  ret ptr %11
}